(dp0
S'TORSDOF'
p1
I4
sS'autodock_element'
p2
c__builtin__
set
p3
((lp4
S'A'
p5
aS'C'
p6
aS'Cl'
p7
aS'NA'
p8
aS'OA'
p9
aS'N'
p10
aS'S'
p11
aS'SA'
p12
aS'HD'
p13
atp14
Rp15
sS'center'
p16
(lp17
F0.1787
aF0.0077000000000000002
aF-0.0112
as.