(dp0
S'TORSDOF'
p1
I6
sS'autodock_element'
p2
c__builtin__
set
p3
((lp4
S'A'
p5
aS'C'
p6
aS'HD'
p7
aS'N'
p8
atp9
Rp10
sS'center'
p11
(lp12
F-0.35980000000000001
aF-0.0064000000000000003
aF-0.058200000000000002
as.