(dp0
S'TORSDOF'
p1
I7
sS'autodock_element'
p2
c__builtin__
set
p3
((lp4
S'A'
p5
aS'C'
p6
aS'NA'
p7
aS'OA'
p8
aS'N'
p9
aS'S'
p10
aS'HD'
p11
atp12
Rp13
sS'center'
p14
(lp15
F-0.028899999999999999
aF-0.0070000000000000001
aF0.15959999999999999
as.