(dp0
S'TORSDOF'
p1
I5
sS'autodock_element'
p2
c__builtin__
set
p3
((lp4
S'A'
p5
aS'C'
p6
aS'NA'
p7
aS'OA'
p8
aS'N'
p9
aS'S'
p10
aS'HD'
p11
atp12
Rp13
sS'center'
p14
(lp15
F0.47039999999999998
aF0.1547
aF-0.27529999999999999
as.