(dp0
S'TORSDOF'
p1
I4
sS'autodock_element'
p2
c__builtin__
set
p3
((lp4
S'A'
p5
aS'C'
p6
aS'NA'
p7
aS'OA'
p8
aS'N'
p9
aS'S'
p10
aS'HD'
p11
atp12
Rp13
sS'center'
p14
(lp15
F-0.2319
aF0.037699999999999997
aF0.086800000000000002
as.