(dp0
S'TORSDOF'
p1
I4
sS'autodock_element'
p2
c__builtin__
set
p3
((lp4
S'A'
p5
aS'C'
p6
aS'OA'
p7
aS'N'
p8
aS'SA'
p9
aS'HD'
p10
atp11
Rp12
sS'center'
p13
(lp14
F0.28070000000000001
aF0.012500000000000001
aF-0.21829999999999999
as.