(dp0
S'TORSDOF'
p1
I8
sS'autodock_element'
p2
c__builtin__
set
p3
((lp4
S'A'
p5
aS'C'
p6
aS'F'
p7
aS'OA'
p8
aS'N'
p9
aS'HD'
p10
atp11
Rp12
sS'center'
p13
(lp14
F-0.1404
aF0.077200000000000005
aF-0.16719999999999999
as.