(dp0
S'TORSDOF'
p1
I3
sS'autodock_element'
p2
c__builtin__
set
p3
((lp4
S'A'
p5
aS'C'
p6
aS'F'
p7
aS'N'
p8
aS'SA'
p9
aS'HD'
p10
atp11
Rp12
sS'center'
p13
(lp14
F-0.30149999999999999
aF-0.2271
aF-0.23730000000000001
as.