(dp0
S'TORSDOF'
p1
I6
sS'autodock_element'
p2
c__builtin__
set
p3
((lp4
S'A'
p5
aS'C'
p6
aS'OA'
p7
aS'HD'
p8
aS'N'
p9
atp10
Rp11
sS'center'
p12
(lp13
F0.46820000000000001
aF-0.18720000000000001
aF0.0066
as.