(dp0
S'TORSDOF'
p1
I2
sS'autodock_element'
p2
c__builtin__
set
p3
((lp4
S'C'
p5
aS'HD'
p6
aS'OA'
p7
aS'N'
p8
atp9
Rp10
sS'center'
p11
(lp12
F-0.022100000000000002
aF-0.038199999999999998
aF-0.058400000000000001
as.