(dp0
S'TORSDOF'
p1
I5
sS'autodock_element'
p2
c__builtin__
set
p3
((lp4
S'A'
p5
aS'C'
p6
aS'F'
p7
aS'OA'
p8
aS'N'
p9
aS'HD'
p10
atp11
Rp12
sS'center'
p13
(lp14
F-0.26640000000000003
aF0.29120000000000001
aF-0.050099999999999999
as.