(dp0
S'TORSDOF'
p1
I4
sS'autodock_element'
p2
c__builtin__
set
p3
((lp4
S'A'
p5
aS'C'
p6
aS'Cl'
p7
aS'OA'
p8
aS'N'
p9
aS'HD'
p10
atp11
Rp12
sS'center'
p13
(lp14
F-0.14999999999999999
aF-0.1018
aF-0.058200000000000002
as.