(dp0
S'TORSDOF'
p1
I7
sS'autodock_element'
p2
c__builtin__
set
p3
((lp4
S'A'
p5
aS'C'
p6
aS'F'
p7
aS'OA'
p8
aS'N'
p9
aS'HD'
p10
atp11
Rp12
sS'center'
p13
(lp14
F0.29349999999999998
aF0.078299999999999995
aF-0.1202
as.