(dp0
S'TORSDOF'
p1
I6
sS'autodock_element'
p2
c__builtin__
set
p3
((lp4
S'A'
p5
aS'C'
p6
aS'HD'
p7
aS'OA'
p8
aS'N'
p9
atp10
Rp11
sS'center'
p12
(lp13
F0.53500000000000003
aF0.14630000000000001
aF-0.2271
as.