(dp0
S'TORSDOF'
p1
I9
sS'autodock_element'
p2
c__builtin__
set
p3
((lp4
S'A'
p5
aS'C'
p6
aS'F'
p7
aS'OA'
p8
aS'N'
p9
aS'HD'
p10
atp11
Rp12
sS'center'
p13
(lp14
F0.14419999999999999
aF0.055599999999999997
aF-0.1842
as.