(dp0
S'TORSDOF'
p1
I3
sS'autodock_element'
p2
c__builtin__
set
p3
((lp4
S'A'
p5
aS'C'
p6
aS'OA'
p7
aS'N'
p8
atp9
Rp10
sS'center'
p11
(lp12
F-0.00069999999999999999
aF0.00050000000000000001
aF-0.060900000000000003
as.