(dp0
S'TORSDOF'
p1
I5
sS'autodock_element'
p2
c__builtin__
set
p3
((lp4
S'A'
p5
aS'C'
p6
aS'NA'
p7
aS'OA'
p8
aS'N'
p9
aS'S'
p10
aS'HD'
p11
atp12
Rp13
sS'center'
p14
(lp15
F-0.47260000000000002
aF0.017000000000000001
aF-0.074999999999999997
as.