(dp0
S'TORSDOF'
p1
I5
sS'autodock_element'
p2
c__builtin__
set
p3
((lp4
S'A'
p5
aS'C'
p6
aS'N'
p7
aS'HD'
p8
aS'F'
p9
atp10
Rp11
sS'center'
p12
(lp13
F-0.1118
aF0.0091999999999999998
aF0.0083000000000000001
as.